; Function Attrs: null_pointer_is_valid sspstrong uwtable
define internal void @dissect_pfcp_mapped_n6_ip_address(ptr noundef %0, ptr noundef %1, ptr noundef %2, ptr noundef %3, i16 noundef zeroext %4, i8 zeroext %5, ptr readnone captures(none) %6) #0 {
  %8 = alloca i64, align 8
  call void @llvm.lifetime.start.p0(i64 8, ptr nonnull %8) #15
  call void @proto_tree_add_bitmask_list_ret_uint64(ptr noundef %2, ptr noundef %0, i32 noundef 0, i32 noundef 1, ptr noundef nonnull @dissect_pfcp_mapped_n6_ip_address.pfcp_mapped_n6_ip_address_flags, i32 noundef 0, ptr noundef nonnull %8)
  %9 = load i64, ptr %8, align 8
  %10 = and i64 %9, 2
  %.not = icmp eq i64 %10, 0
  br i1 %.not, label %17, label %11

11:                                               ; preds = %7
  %12 = load i32, ptr @hf_pfcp_mapped_n6_ip_address_ipv4, align 4
  %13 = call ptr @proto_tree_add_item(ptr noundef %2, i32 noundef %12, ptr noundef %0, i32 noundef 1, i32 noundef 4, i32 noundef 0)
  %14 = getelementptr inbounds nuw i8, ptr %1, i64 408
  %15 = load ptr, ptr %14, align 8
  %16 = call ptr @tvb_address_to_str(ptr noundef %15, ptr noundef %0, i32 noundef 2, i32 noundef 1)
  call void (ptr, ptr, ...) @proto_item_append_text(ptr noundef %3, ptr noundef nonnull @.str.2656, ptr noundef %16)
  br label %17

17:                                               ; preds = %11, %7
  %.0 = phi i32 [ 5, %11 ], [ 1, %7 ]
  %18 = zext i16 %4 to i32
  %19 = icmp samesign ult i32 %.0, %18
  br i1 %19, label %20, label %22

20:                                               ; preds = %17
  %21 = call ptr @proto_tree_add_expert(ptr noundef %2, ptr noundef %1, ptr noundef nonnull @ei_pfcp_ie_data_not_decoded, ptr noundef %0, i32 noundef %.0, i32 noundef -1)
  br label %22

22:                                               ; preds = %20, %17
  call void @llvm.lifetime.end.p0(i64 8, ptr nonnull %8) #15
  ret void
}